target datalayout = "e-m:e-p270:32:32-p271:32:32-p272:64:64-i64:64-i128:128-f80:128-n8:16:32:64-S128"
target triple = "x86_64-pc-linux-gnu"

%"class.std::__1::ios_base" = type { ptr, i32, i64, i64, i32, i32, ptr, ptr, ptr, ptr, i64, i64, ptr, i64, i64, ptr, i64, i64 }

@.str.2 = private unnamed_addr constant [16 x i8] c"ios_base::clear\00", align 1

; Function Attrs: mustprogress uwtable
define dso_local void @_ZNSt3__18ios_base5clearEj(ptr noundef nonnull align 8 dereferenceable(136) %0, i32 noundef %1) #1 align 2 {
  %3 = alloca ptr, align 8
  %4 = alloca i32, align 4
  store ptr %0, ptr %3, align 8, !tbaa !27
  store i32 %1, ptr %4, align 4, !tbaa !9
  %5 = load ptr, ptr %3, align 8
  %6 = getelementptr inbounds nuw %"class.std::__1::ios_base", ptr %5, i32 0, i32 6
  %7 = load ptr, ptr %6, align 8, !tbaa !61
  %8 = icmp ne ptr %7, null
  br i1 %8, label %9, label %12

9:                                                ; preds = %2
  %10 = load i32, ptr %4, align 4, !tbaa !9
  %11 = getelementptr inbounds nuw %"class.std::__1::ios_base", ptr %5, i32 0, i32 4
  store i32 %10, ptr %11, align 8, !tbaa !52
  br label %16

12:                                               ; preds = %2
  %13 = load i32, ptr %4, align 4, !tbaa !9
  %14 = or i32 %13, 1
  %15 = getelementptr inbounds nuw %"class.std::__1::ios_base", ptr %5, i32 0, i32 4
  store i32 %14, ptr %15, align 8, !tbaa !52
  br label %16

16:                                               ; preds = %12, %9
  %17 = load i32, ptr %4, align 4, !tbaa !9
  %18 = getelementptr inbounds nuw %"class.std::__1::ios_base", ptr %5, i32 0, i32 6
  %19 = load ptr, ptr %18, align 8, !tbaa !61
  %20 = icmp ne ptr %19, null
  %21 = select i1 %20, i32 0, i32 1
  %22 = or i32 %17, %21
  %23 = getelementptr inbounds nuw %"class.std::__1::ios_base", ptr %5, i32 0, i32 5
  %24 = load i32, ptr %23, align 4, !tbaa !62
  %25 = and i32 %22, %24
  %26 = icmp ne i32 %25, 0
  br i1 %26, label %27, label %28

27:                                               ; preds = %16
  call void @_ZNSt3__115__throw_failureB8ne210000EPKc(ptr noundef @.str.2) #21
  unreachable

28:                                               ; preds = %16
  ret void
}